target datalayout = "e-m:e-p270:32:32-p271:32:32-p272:64:64-i64:64-i128:128-f80:128-n8:16:32:64-S128"
target triple = "x86_64-pc-linux-gnu"

%struct.JNIEnv_ = type { ptr }
%struct.JNINativeInterface_ = type { ptr, ptr, ptr, ptr, ptr, ptr, ptr, ptr, ptr, ptr, ptr, ptr, ptr, ptr, ptr, ptr, ptr, ptr, ptr, ptr, ptr, ptr, ptr, ptr, ptr, ptr, ptr, ptr, ptr, ptr, ptr, ptr, ptr, ptr, ptr, ptr, ptr, ptr, ptr, ptr, ptr, ptr, ptr, ptr, ptr, ptr, ptr, ptr, ptr, ptr, ptr, ptr, ptr, ptr, ptr, ptr, ptr, ptr, ptr, ptr, ptr, ptr, ptr, ptr, ptr, ptr, ptr, ptr, ptr, ptr, ptr, ptr, ptr, ptr, ptr, ptr, ptr, ptr, ptr, ptr, ptr, ptr, ptr, ptr, ptr, ptr, ptr, ptr, ptr, ptr, ptr, ptr, ptr, ptr, ptr, ptr, ptr, ptr, ptr, ptr, ptr, ptr, ptr, ptr, ptr, ptr, ptr, ptr, ptr, ptr, ptr, ptr, ptr, ptr, ptr, ptr, ptr, ptr, ptr, ptr, ptr, ptr, ptr, ptr, ptr, ptr, ptr, ptr, ptr, ptr, ptr, ptr, ptr, ptr, ptr, ptr, ptr, ptr, ptr, ptr, ptr, ptr, ptr, ptr, ptr, ptr, ptr, ptr, ptr, ptr, ptr, ptr, ptr, ptr, ptr, ptr, ptr, ptr, ptr, ptr, ptr, ptr, ptr, ptr, ptr, ptr, ptr, ptr, ptr, ptr, ptr, ptr, ptr, ptr, ptr, ptr, ptr, ptr, ptr, ptr, ptr, ptr, ptr, ptr, ptr, ptr, ptr, ptr, ptr, ptr, ptr, ptr, ptr, ptr, ptr, ptr, ptr, ptr, ptr, ptr, ptr, ptr, ptr, ptr, ptr, ptr, ptr, ptr, ptr, ptr, ptr, ptr, ptr, ptr, ptr, ptr, ptr, ptr, ptr, ptr, ptr, ptr, ptr, ptr, ptr, ptr, ptr, ptr, ptr, ptr, ptr, ptr, ptr, ptr, ptr }

@_ZL9saaltroot = internal global ptr null, align 8
@_ZZ68Java_sun_jvm_hotspot_debugger_linux_LinuxDebuggerLocal_setSAAltRoot0E6PREFIX = internal global ptr @.str.20, align 8
@.str.21 = private unnamed_addr constant [5 x i8] c"%s%s\00", align 1

; Function Attrs: mustprogress uwtable
define linkonce_odr hidden void @_ZN7JNIEnv_21ReleaseStringUTFCharsEP8_jstringPKc(ptr noundef nonnull align 8 dereferenceable(8) %0, ptr noundef %1, ptr noundef %2) #0 comdat align 2 {
  %4 = alloca ptr, align 8
  %5 = alloca ptr, align 8
  %6 = alloca ptr, align 8
  store ptr %0, ptr %4, align 8
  store ptr %1, ptr %5, align 8
  store ptr %2, ptr %6, align 8
  %7 = load ptr, ptr %4, align 8
  %8 = getelementptr inbounds %struct.JNIEnv_, ptr %7, i32 0, i32 0
  %9 = load ptr, ptr %8, align 8
  %10 = getelementptr inbounds %struct.JNINativeInterface_, ptr %9, i32 0, i32 170
  %11 = load ptr, ptr %10, align 8
  %12 = load ptr, ptr %5, align 8
  %13 = load ptr, ptr %6, align 8
  call void %11(ptr noundef %7, ptr noundef %12, ptr noundef %13)
  ret void
}

; Function Attrs: mustprogress uwtable
define linkonce_odr hidden noundef ptr @_ZN7JNIEnv_17GetStringUTFCharsEP8_jstringPh(ptr noundef nonnull align 8 dereferenceable(8) %0, ptr noundef %1, ptr noundef %2) #0 comdat align 2 {
  %4 = alloca ptr, align 8
  %5 = alloca ptr, align 8
  %6 = alloca ptr, align 8
  store ptr %0, ptr %4, align 8
  store ptr %1, ptr %5, align 8
  store ptr %2, ptr %6, align 8
  %7 = load ptr, ptr %4, align 8
  %8 = getelementptr inbounds %struct.JNIEnv_, ptr %7, i32 0, i32 0
  %9 = load ptr, ptr %8, align 8
  %10 = getelementptr inbounds %struct.JNINativeInterface_, ptr %9, i32 0, i32 169
  %11 = load ptr, ptr %10, align 8
  %12 = load ptr, ptr %5, align 8
  %13 = load ptr, ptr %6, align 8
  %14 = call noundef ptr %11(ptr noundef %7, ptr noundef %12, ptr noundef %13)
  ret ptr %14
}

; Function Attrs: mustprogress uwtable
define void @Java_sun_jvm_hotspot_debugger_linux_LinuxDebuggerLocal_setSAAltRoot0(ptr noundef %0, ptr noundef %1, ptr noundef %2) #0 {
  %4 = alloca ptr, align 8
  %5 = alloca ptr, align 8
  %6 = alloca ptr, align 8
  %7 = alloca ptr, align 8
  %8 = alloca i64, align 8
  store ptr %0, ptr %4, align 8
  store ptr %1, ptr %5, align 8
  store ptr %2, ptr %6, align 8
  %9 = load ptr, ptr @_ZL9saaltroot, align 8
  %10 = icmp ne ptr %9, null
  br i1 %10, label %11, label %13

11:                                               ; preds = %3
  %12 = load ptr, ptr @_ZL9saaltroot, align 8
  call void @free(ptr noundef %12) #8
  br label %13

13:                                               ; preds = %11, %3
  %14 = load ptr, ptr %4, align 8
  %15 = load ptr, ptr %6, align 8
  %16 = call noundef ptr @_ZN7JNIEnv_17GetStringUTFCharsEP8_jstringPh(ptr noundef nonnull align 8 dereferenceable(8) %14, ptr noundef %15, ptr noundef null)
  store ptr %16, ptr %7, align 8
  %17 = load ptr, ptr %7, align 8
  %18 = icmp eq ptr %17, null
  br i1 %18, label %19, label %20

19:                                               ; preds = %13
  br label %39

20:                                               ; preds = %13
  %21 = load ptr, ptr @_ZZ68Java_sun_jvm_hotspot_debugger_linux_LinuxDebuggerLocal_setSAAltRoot0E6PREFIX, align 8
  %22 = call i64 @strlen(ptr noundef %21) #9
  %23 = load ptr, ptr %7, align 8
  %24 = call i64 @strlen(ptr noundef %23) #9
  %25 = add i64 %22, %24
  %26 = add i64 %25, 1
  store i64 %26, ptr %8, align 8
  %27 = load i64, ptr %8, align 8
  %28 = call noalias ptr @malloc(i64 noundef %27) #10
  store ptr %28, ptr @_ZL9saaltroot, align 8
  %29 = load ptr, ptr @_ZL9saaltroot, align 8
  %30 = load i64, ptr %8, align 8
  %31 = load ptr, ptr @_ZZ68Java_sun_jvm_hotspot_debugger_linux_LinuxDebuggerLocal_setSAAltRoot0E6PREFIX, align 8
  %32 = load ptr, ptr %7, align 8
  %33 = call i32 (ptr, i64, ptr, ...) @snprintf(ptr noundef %29, i64 noundef %30, ptr noundef @.str.21, ptr noundef %31, ptr noundef %32) #8
  %34 = load ptr, ptr @_ZL9saaltroot, align 8
  %35 = call i32 @putenv(ptr noundef %34) #8
  %36 = load ptr, ptr %4, align 8
  %37 = load ptr, ptr %6, align 8
  %38 = load ptr, ptr %7, align 8
  call void @_ZN7JNIEnv_21ReleaseStringUTFCharsEP8_jstringPKc(ptr noundef nonnull align 8 dereferenceable(8) %36, ptr noundef %37, ptr noundef %38)
  br label %39

39:                                               ; preds = %20, %19
  ret void
}