; Function Attrs: mustprogress uwtable
define void @Java_sun_jvm_hotspot_debugger_linux_LinuxDebuggerLocal_setSAAltRoot0(ptr noundef %0, ptr nocapture noundef readnone %1, ptr noundef %2) local_unnamed_addr #0 {
  %4 = load ptr, ptr @_ZL9saaltroot, align 8
  %.not = icmp eq ptr %4, null
  br i1 %.not, label %6, label %5

5:                                                ; preds = %3
  tail call void @free(ptr noundef nonnull %4) #13
  br label %6

6:                                                ; preds = %5, %3
  %7 = load ptr, ptr %0, align 8
  %8 = getelementptr inbounds i8, ptr %7, i64 1352
  %9 = load ptr, ptr %8, align 8
  %10 = tail call noundef ptr %9(ptr noundef nonnull %0, ptr noundef %2, ptr noundef null)
  %11 = icmp eq ptr %10, null
  br i1 %11, label %22, label %12

12:                                               ; preds = %6
  %13 = tail call i64 @strlen(ptr noundef nonnull dereferenceable(1) %10) #14
  %14 = add i64 %13, 12
  %15 = tail call noalias ptr @malloc(i64 noundef %14) #15
  store ptr %15, ptr @_ZL9saaltroot, align 8
  %16 = tail call i32 (ptr, i64, ptr, ...) @snprintf(ptr noundef %15, i64 noundef %14, ptr noundef nonnull @.str.21, ptr noundef nonnull @.str.20, ptr noundef nonnull %10) #13
  %17 = load ptr, ptr @_ZL9saaltroot, align 8
  %18 = tail call i32 @putenv(ptr noundef %17) #13
  %19 = load ptr, ptr %0, align 8
  %20 = getelementptr inbounds i8, ptr %19, i64 1360
  %21 = load ptr, ptr %20, align 8
  tail call void %21(ptr noundef nonnull %0, ptr noundef %2, ptr noundef nonnull %10)
  br label %22

22:                                               ; preds = %6, %12
  ret void
}